target datalayout = "e-m:e-p270:32:32-p271:32:32-p272:64:64-i64:64-i128:128-f80:128-n8:16:32:64-S128"
target triple = "x86_64-pc-linux-gnu"

@scale2 = internal global ptr null, align 8
@scale2_timer_cb.down1 = internal global i8 0, align 1
@scale2_timer_cb.down2 = internal global i8 0, align 1
@scale2_timer_cb.down3 = internal global i8 0, align 1
@session_desktop = internal global i32 1000, align 4
@session_tablet = internal global i32 1000, align 4
@session_mobile = internal global i32 1000, align 4
@.str.92 = private unnamed_addr constant [12 x i8] c"Desktop: %u\00", align 1
@.str.93 = private unnamed_addr constant [11 x i8] c"Tablet: %u\00", align 1
@.str.94 = private unnamed_addr constant [11 x i8] c"Mobile: %u\00", align 1

; Function Attrs: nounwind uwtable
define internal void @scale2_timer_cb(ptr noundef %0) #0 {
  %2 = alloca ptr, align 8
  %3 = alloca i32, align 4
  %4 = alloca i32, align 4
  %5 = alloca i32, align 4
  %6 = alloca ptr, align 8
  %7 = alloca ptr, align 8
  store ptr %0, ptr %2, align 8, !tbaa !7
  %8 = load i8, ptr @scale2_timer_cb.down1, align 1, !tbaa !39, !range !41, !noundef !42
  %9 = trunc i8 %8 to i1
  br i1 %9, label %10, label %17

10:                                               ; preds = %1
  %11 = load i32, ptr @session_desktop, align 4, !tbaa !3
  %12 = sub i32 %11, 137
  store i32 %12, ptr @session_desktop, align 4, !tbaa !3
  %13 = load i32, ptr @session_desktop, align 4, !tbaa !3
  %14 = icmp ult i32 %13, 1400
  br i1 %14, label %15, label %16

15:                                               ; preds = %10
  store i8 0, ptr @scale2_timer_cb.down1, align 1, !tbaa !39
  br label %16

16:                                               ; preds = %15, %10
  br label %24

17:                                               ; preds = %1
  %18 = load i32, ptr @session_desktop, align 4, !tbaa !3
  %19 = add i32 %18, 116
  store i32 %19, ptr @session_desktop, align 4, !tbaa !3
  %20 = load i32, ptr @session_desktop, align 4, !tbaa !3
  %21 = icmp ugt i32 %20, 4500
  br i1 %21, label %22, label %23

22:                                               ; preds = %17
  store i8 1, ptr @scale2_timer_cb.down1, align 1, !tbaa !39
  br label %23

23:                                               ; preds = %22, %17
  br label %24

24:                                               ; preds = %23, %16
  %25 = load i8, ptr @scale2_timer_cb.down2, align 1, !tbaa !39, !range !41, !noundef !42
  %26 = trunc i8 %25 to i1
  br i1 %26, label %27, label %34

27:                                               ; preds = %24
  %28 = load i32, ptr @session_tablet, align 4, !tbaa !3
  %29 = sub i32 %28, 3
  store i32 %29, ptr @session_tablet, align 4, !tbaa !3
  %30 = load i32, ptr @session_tablet, align 4, !tbaa !3
  %31 = icmp ult i32 %30, 1400
  br i1 %31, label %32, label %33

32:                                               ; preds = %27
  store i8 0, ptr @scale2_timer_cb.down2, align 1, !tbaa !39
  br label %33

33:                                               ; preds = %32, %27
  br label %41

34:                                               ; preds = %24
  %35 = load i32, ptr @session_tablet, align 4, !tbaa !3
  %36 = add i32 %35, 9
  store i32 %36, ptr @session_tablet, align 4, !tbaa !3
  %37 = load i32, ptr @session_tablet, align 4, !tbaa !3
  %38 = icmp ugt i32 %37, 4500
  br i1 %38, label %39, label %40

39:                                               ; preds = %34
  store i8 1, ptr @scale2_timer_cb.down2, align 1, !tbaa !39
  br label %40

40:                                               ; preds = %39, %34
  br label %41

41:                                               ; preds = %40, %33
  %42 = load i8, ptr @scale2_timer_cb.down3, align 1, !tbaa !39, !range !41, !noundef !42
  %43 = trunc i8 %42 to i1
  br i1 %43, label %44, label %51

44:                                               ; preds = %41
  %45 = load i32, ptr @session_mobile, align 4, !tbaa !3
  %46 = sub i32 %45, 57
  store i32 %46, ptr @session_mobile, align 4, !tbaa !3
  %47 = load i32, ptr @session_mobile, align 4, !tbaa !3
  %48 = icmp ult i32 %47, 1400
  br i1 %48, label %49, label %50

49:                                               ; preds = %44
  store i8 0, ptr @scale2_timer_cb.down3, align 1, !tbaa !39
  br label %50

50:                                               ; preds = %49, %44
  br label %58

51:                                               ; preds = %41
  %52 = load i32, ptr @session_mobile, align 4, !tbaa !3
  %53 = add i32 %52, 76
  store i32 %53, ptr @session_mobile, align 4, !tbaa !3
  %54 = load i32, ptr @session_mobile, align 4, !tbaa !3
  %55 = icmp ugt i32 %54, 4500
  br i1 %55, label %56, label %57

56:                                               ; preds = %51
  store i8 1, ptr @scale2_timer_cb.down3, align 1, !tbaa !39
  br label %57

57:                                               ; preds = %56, %51
  br label %58

58:                                               ; preds = %57, %50
  call void @llvm.lifetime.start.p0(i64 4, ptr %3) #5
  %59 = load i32, ptr @session_desktop, align 4, !tbaa !3
  %60 = load i32, ptr @session_tablet, align 4, !tbaa !3
  %61 = add i32 %59, %60
  %62 = load i32, ptr @session_mobile, align 4, !tbaa !3
  %63 = add i32 %61, %62
  store i32 %63, ptr %3, align 4, !tbaa !3
  call void @llvm.lifetime.start.p0(i64 4, ptr %4) #5
  %64 = load i32, ptr @session_desktop, align 4, !tbaa !3
  %65 = mul i32 %64, 354
  %66 = load i32, ptr %3, align 4, !tbaa !3
  %67 = udiv i32 %65, %66
  store i32 %67, ptr %4, align 4, !tbaa !3
  call void @llvm.lifetime.start.p0(i64 4, ptr %5) #5
  %68 = load i32, ptr @session_tablet, align 4, !tbaa !3
  %69 = mul i32 %68, 354
  %70 = load i32, ptr %3, align 4, !tbaa !3
  %71 = udiv i32 %69, %70
  store i32 %71, ptr %5, align 4, !tbaa !3
  %72 = load ptr, ptr @scale2, align 8, !tbaa !7
  %73 = call ptr @lv_obj_get_child(ptr noundef %72, i32 noundef 0)
  %74 = load i32, ptr %4, align 4, !tbaa !3
  %75 = uitofp i32 %74 to float
  call void @lv_arc_set_angles(ptr noundef %73, float noundef 0.000000e+00, float noundef %75)
  %76 = load ptr, ptr @scale2, align 8, !tbaa !7
  %77 = call ptr @lv_obj_get_child(ptr noundef %76, i32 noundef 1)
  %78 = load i32, ptr %4, align 4, !tbaa !3
  %79 = add i32 %78, 2
  %80 = uitofp i32 %79 to float
  %81 = load i32, ptr %4, align 4, !tbaa !3
  %82 = add i32 %81, 2
  %83 = load i32, ptr %5, align 4, !tbaa !3
  %84 = add i32 %82, %83
  %85 = uitofp i32 %84 to float
  call void @lv_arc_set_angles(ptr noundef %77, float noundef %80, float noundef %85)
  %86 = load ptr, ptr @scale2, align 8, !tbaa !7
  %87 = call ptr @lv_obj_get_child(ptr noundef %86, i32 noundef 2)
  %88 = load i32, ptr %4, align 4, !tbaa !3
  %89 = add i32 %88, 2
  %90 = load i32, ptr %5, align 4, !tbaa !3
  %91 = add i32 %89, %90
  %92 = add i32 %91, 2
  %93 = uitofp i32 %92 to float
  call void @lv_arc_set_angles(ptr noundef %87, float noundef %93, float noundef 3.580000e+02)
  call void @llvm.lifetime.start.p0(i64 8, ptr %6) #5
  %94 = load ptr, ptr @scale2, align 8, !tbaa !7
  %95 = call ptr @lv_obj_get_parent(ptr noundef %94)
  store ptr %95, ptr %6, align 8, !tbaa !7
  call void @llvm.lifetime.start.p0(i64 8, ptr %7) #5
  %96 = load ptr, ptr %6, align 8, !tbaa !7
  %97 = call ptr @lv_obj_get_child(ptr noundef %96, i32 noundef -5)
  store ptr %97, ptr %7, align 8, !tbaa !7
  %98 = load ptr, ptr %7, align 8, !tbaa !7
  %99 = load i32, ptr @session_desktop, align 4, !tbaa !3
  call void (ptr, ptr, ...) @lv_label_set_text_fmt(ptr noundef %98, ptr noundef @.str.92, i32 noundef %99)
  %100 = load ptr, ptr %6, align 8, !tbaa !7
  %101 = call ptr @lv_obj_get_child(ptr noundef %100, i32 noundef -3)
  store ptr %101, ptr %7, align 8, !tbaa !7
  %102 = load ptr, ptr %7, align 8, !tbaa !7
  %103 = load i32, ptr @session_tablet, align 4, !tbaa !3
  call void (ptr, ptr, ...) @lv_label_set_text_fmt(ptr noundef %102, ptr noundef @.str.93, i32 noundef %103)
  %104 = load ptr, ptr %6, align 8, !tbaa !7
  %105 = call ptr @lv_obj_get_child(ptr noundef %104, i32 noundef -1)
  store ptr %105, ptr %7, align 8, !tbaa !7
  %106 = load ptr, ptr %7, align 8, !tbaa !7
  %107 = load i32, ptr @session_mobile, align 4, !tbaa !3
  call void (ptr, ptr, ...) @lv_label_set_text_fmt(ptr noundef %106, ptr noundef @.str.94, i32 noundef %107)
  call void @llvm.lifetime.end.p0(i64 8, ptr %7) #5
  call void @llvm.lifetime.end.p0(i64 8, ptr %6) #5
  call void @llvm.lifetime.end.p0(i64 4, ptr %5) #5
  call void @llvm.lifetime.end.p0(i64 4, ptr %4) #5
  call void @llvm.lifetime.end.p0(i64 4, ptr %3) #5
  ret void
}