; Function Attrs: nounwind uwtable
define internal void @scale2_timer_cb(ptr nocapture readnone %0) #0 {
  %.b15 = load i1, ptr @scale2_timer_cb.down1, align 1
  %2 = load i32, ptr @session_desktop, align 4, !tbaa !3
  br i1 %.b15, label %3, label %6

3:                                                ; preds = %1
  %4 = add i32 %2, -137
  store i32 %4, ptr @session_desktop, align 4, !tbaa !3
  %5 = icmp ult i32 %4, 1400
  br i1 %5, label %.sink.split, label %9

6:                                                ; preds = %1
  %7 = add i32 %2, 116
  store i32 %7, ptr @session_desktop, align 4, !tbaa !3
  %8 = icmp ugt i32 %7, 4500
  br i1 %8, label %.sink.split, label %9

.sink.split:                                      ; preds = %6, %3
  %.ph = phi i32 [ %4, %3 ], [ %7, %6 ]
  %.sink = xor i1 %.b15, true
  store i1 %.sink, ptr @scale2_timer_cb.down1, align 1
  br label %9

9:                                                ; preds = %.sink.split, %6, %3
  %10 = phi i32 [ %7, %6 ], [ %4, %3 ], [ %.ph, %.sink.split ]
  %.b1316 = load i1, ptr @scale2_timer_cb.down2, align 1
  %11 = load i32, ptr @session_tablet, align 4, !tbaa !3
  br i1 %.b1316, label %12, label %15

12:                                               ; preds = %9
  %13 = add i32 %11, -3
  store i32 %13, ptr @session_tablet, align 4, !tbaa !3
  %14 = icmp ult i32 %13, 1400
  br i1 %14, label %.sink.split18, label %18

15:                                               ; preds = %9
  %16 = add i32 %11, 9
  store i32 %16, ptr @session_tablet, align 4, !tbaa !3
  %17 = icmp ugt i32 %16, 4500
  br i1 %17, label %.sink.split18, label %18

.sink.split18:                                    ; preds = %15, %12
  %.ph19 = phi i32 [ %13, %12 ], [ %16, %15 ]
  %.sink20 = xor i1 %.b1316, true
  store i1 %.sink20, ptr @scale2_timer_cb.down2, align 1
  br label %18

18:                                               ; preds = %.sink.split18, %15, %12
  %19 = phi i32 [ %16, %15 ], [ %13, %12 ], [ %.ph19, %.sink.split18 ]
  %.b1417 = load i1, ptr @scale2_timer_cb.down3, align 1
  %20 = load i32, ptr @session_mobile, align 4, !tbaa !3
  br i1 %.b1417, label %21, label %24

21:                                               ; preds = %18
  %22 = add i32 %20, -57
  store i32 %22, ptr @session_mobile, align 4, !tbaa !3
  %23 = icmp ult i32 %22, 1400
  br i1 %23, label %.sink.split21, label %27

24:                                               ; preds = %18
  %25 = add i32 %20, 76
  store i32 %25, ptr @session_mobile, align 4, !tbaa !3
  %26 = icmp ugt i32 %25, 4500
  br i1 %26, label %.sink.split21, label %27

.sink.split21:                                    ; preds = %24, %21
  %.ph22 = phi i32 [ %22, %21 ], [ %25, %24 ]
  %.sink23 = xor i1 %.b1417, true
  store i1 %.sink23, ptr @scale2_timer_cb.down3, align 1
  br label %27

27:                                               ; preds = %.sink.split21, %24, %21
  %28 = phi i32 [ %25, %24 ], [ %22, %21 ], [ %.ph22, %.sink.split21 ]
  %29 = add i32 %19, %10
  %30 = add i32 %29, %28
  %31 = mul i32 %10, 354
  %32 = udiv i32 %31, %30
  %33 = mul i32 %19, 354
  %34 = udiv i32 %33, %30
  %35 = load ptr, ptr @scale2, align 8, !tbaa !7
  %36 = tail call ptr @lv_obj_get_child(ptr noundef %35, i32 noundef 0) #5
  %37 = uitofp i32 %32 to float
  tail call void @lv_arc_set_angles(ptr noundef %36, float noundef 0.000000e+00, float noundef %37) #5
  %38 = load ptr, ptr @scale2, align 8, !tbaa !7
  %39 = tail call ptr @lv_obj_get_child(ptr noundef %38, i32 noundef 1) #5
  %40 = add i32 %32, 2
  %41 = uitofp i32 %40 to float
  %42 = add i32 %40, %34
  %43 = uitofp i32 %42 to float
  tail call void @lv_arc_set_angles(ptr noundef %39, float noundef %41, float noundef %43) #5
  %44 = load ptr, ptr @scale2, align 8, !tbaa !7
  %45 = tail call ptr @lv_obj_get_child(ptr noundef %44, i32 noundef 2) #5
  %46 = add i32 %42, 2
  %47 = uitofp i32 %46 to float
  tail call void @lv_arc_set_angles(ptr noundef %45, float noundef %47, float noundef 3.580000e+02) #5
  %48 = load ptr, ptr @scale2, align 8, !tbaa !7
  %49 = tail call ptr @lv_obj_get_parent(ptr noundef %48) #5
  %50 = tail call ptr @lv_obj_get_child(ptr noundef %49, i32 noundef -5) #5
  %51 = load i32, ptr @session_desktop, align 4, !tbaa !3
  tail call void (ptr, ptr, ...) @lv_label_set_text_fmt(ptr noundef %50, ptr noundef nonnull @.str.92, i32 noundef %51) #5
  %52 = tail call ptr @lv_obj_get_child(ptr noundef %49, i32 noundef -3) #5
  %53 = load i32, ptr @session_tablet, align 4, !tbaa !3
  tail call void (ptr, ptr, ...) @lv_label_set_text_fmt(ptr noundef %52, ptr noundef nonnull @.str.93, i32 noundef %53) #5
  %54 = tail call ptr @lv_obj_get_child(ptr noundef %49, i32 noundef -1) #5
  %55 = load i32, ptr @session_mobile, align 4, !tbaa !3
  tail call void (ptr, ptr, ...) @lv_label_set_text_fmt(ptr noundef %54, ptr noundef nonnull @.str.94, i32 noundef %55) #5
  ret void
}